target datalayout = "e-m:e-p270:32:32-p271:32:32-p272:64:64-i64:64-i128:128-f80:128-n8:16:32:64-S128"
target triple = "x86_64-pc-linux-gnu"

%class.Template = type <{ i32, i32, i32, [4 x i8], ptr, i32, [4 x i8] }>
%class.AbstractInterpreterGenerator = type { ptr }

@.str.52 = private unnamed_addr constant [63 x i8] c"src/hotspot/share/interpreter/templateInterpreterGenerator.cpp\00", align 1
@ProfileInterpreter = external global i8, align 1
@_ZN9Bytecodes8_lengthsE = external constant [239 x i8], align 16
@PrintInterpreter = external global i8, align 1

; Function Attrs: mustprogress nounwind uwtable
define linkonce_odr hidden noundef zeroext i1 @_ZN9Bytecodes8is_validEi(i32 noundef %0) #1 comdat align 2 {
  %2 = alloca i32, align 4
  store i32 %0, ptr %2, align 4
  %3 = load i32, ptr %2, align 4
  %4 = icmp sle i32 0, %3
  br i1 %4, label %5, label %8

5:                                                ; preds = %1
  %6 = load i32, ptr %2, align 4
  %7 = icmp slt i32 %6, 239
  br label %8

8:                                                ; preds = %5, %1
  %9 = phi i1 [ false, %1 ], [ %7, %5 ]
  ret i1 %9
}

; Function Attrs: mustprogress nounwind uwtable
define linkonce_odr hidden noundef ptr @_ZN12Disassembler4hookI25InterpreterMacroAssemblerEEPT_PKciS3_(ptr noundef %0, i32 noundef %1, ptr noundef %2) #1 comdat align 2 {
  %4 = alloca ptr, align 8
  %5 = alloca i32, align 4
  %6 = alloca ptr, align 8
  store ptr %0, ptr %4, align 8
  store i32 %1, ptr %5, align 4
  store ptr %2, ptr %6, align 8
  %7 = load i8, ptr @PrintInterpreter, align 1
  %8 = trunc i8 %7 to i1
  br i1 %8, label %9, label %13

9:                                                ; preds = %3
  %10 = load ptr, ptr %4, align 8
  %11 = load i32, ptr %5, align 4
  %12 = load ptr, ptr %6, align 8
  call void @_ZN12Disassembler5_hookEPKciP14MacroAssembler(ptr noundef %10, i32 noundef %11, ptr noundef %12)
  br label %13

13:                                               ; preds = %9, %3
  %14 = load ptr, ptr %6, align 8
  ret ptr %14
}

; Function Attrs: mustprogress nounwind uwtable
define linkonce_odr hidden noundef zeroext i1 @_ZN10MethodData20bytecode_has_profileEN9Bytecodes4CodeE(i32 noundef %0) #1 comdat align 2 {
  %2 = alloca i32, align 4
  store i32 %0, ptr %2, align 4
  %3 = load i32, ptr %2, align 4
  %4 = call noundef i32 @_ZN10MethodData19bytecode_cell_countEN9Bytecodes4CodeE(i32 noundef %3)
  %5 = icmp ne i32 %4, -1
  ret i1 %5
}

; Function Attrs: mustprogress nounwind uwtable
define linkonce_odr hidden noundef i32 @_ZNK8Template7tos_outEv(ptr noundef nonnull align 8 dereferenceable(28) %0) #1 comdat align 2 {
  %2 = alloca ptr, align 8
  store ptr %0, ptr %2, align 8
  %3 = load ptr, ptr %2, align 8
  %4 = getelementptr inbounds %class.Template, ptr %3, i32 0, i32 2
  %5 = load i32, ptr %4, align 8
  ret i32 %5
}

; Function Attrs: mustprogress nounwind uwtable
define linkonce_odr hidden noundef i32 @_ZN9Bytecodes10length_forENS_4CodeE(i32 noundef %0) #1 comdat align 2 {
  %2 = alloca i32, align 4
  store i32 %0, ptr %2, align 4
  %3 = load i32, ptr %2, align 4
  %4 = call noundef zeroext i1 @_ZN9Bytecodes8is_validEi(i32 noundef %3)
  br i1 %4, label %5, label %12

5:                                                ; preds = %1
  %6 = load i32, ptr %2, align 4
  %7 = sext i32 %6 to i64
  %8 = getelementptr inbounds [239 x i8], ptr @_ZN9Bytecodes8_lengthsE, i64 0, i64 %7
  %9 = load i8, ptr %8, align 1
  %10 = zext i8 %9 to i32
  %11 = and i32 %10, 15
  br label %13

12:                                               ; preds = %1
  br label %13

13:                                               ; preds = %12, %5
  %14 = phi i32 [ %11, %5 ], [ -1, %12 ]
  ret i32 %14
}

; Function Attrs: mustprogress nounwind uwtable
define linkonce_odr hidden noundef i32 @_ZN9Bytecodes15wide_length_forENS_4CodeE(i32 noundef %0) #1 comdat align 2 {
  %2 = alloca i32, align 4
  store i32 %0, ptr %2, align 4
  %3 = load i32, ptr %2, align 4
  %4 = call noundef zeroext i1 @_ZN9Bytecodes8is_validEi(i32 noundef %3)
  br i1 %4, label %5, label %12

5:                                                ; preds = %1
  %6 = load i32, ptr %2, align 4
  %7 = sext i32 %6 to i64
  %8 = getelementptr inbounds [239 x i8], ptr @_ZN9Bytecodes8_lengthsE, i64 0, i64 %7
  %9 = load i8, ptr %8, align 1
  %10 = zext i8 %9 to i32
  %11 = ashr i32 %10, 4
  br label %13

12:                                               ; preds = %1
  br label %13

13:                                               ; preds = %12, %5
  %14 = phi i32 [ %11, %5 ], [ -1, %12 ]
  ret i32 %14
}

; Function Attrs: mustprogress nounwind uwtable
define linkonce_odr hidden noundef zeroext i1 @_ZNK8Template7is_wideEv(ptr noundef nonnull align 8 dereferenceable(28) %0) #1 comdat align 2 {
  %2 = alloca ptr, align 8
  store ptr %0, ptr %2, align 8
  %3 = load ptr, ptr %2, align 8
  %4 = getelementptr inbounds %class.Template, ptr %3, i32 0, i32 0
  %5 = load i32, ptr %4, align 8
  %6 = and i32 %5, 8
  %7 = icmp ne i32 %6, 0
  ret i1 %7
}

; Function Attrs: mustprogress nounwind uwtable
define linkonce_odr hidden noundef zeroext i1 @_ZNK8Template13does_dispatchEv(ptr noundef nonnull align 8 dereferenceable(28) %0) #1 comdat align 2 {
  %2 = alloca ptr, align 8
  store ptr %0, ptr %2, align 8
  %3 = load ptr, ptr %2, align 8
  %4 = getelementptr inbounds %class.Template, ptr %3, i32 0, i32 0
  %5 = load i32, ptr %4, align 8
  %6 = and i32 %5, 2
  %7 = icmp ne i32 %6, 0
  ret i1 %7
}

; Function Attrs: mustprogress nounwind uwtable
define hidden void @_ZN28TemplateInterpreterGenerator21generate_and_dispatchEP8Template8TosState(ptr noundef nonnull align 8 dereferenceable(24) %0, ptr noundef %1, i32 noundef %2) #1 align 2 {
  %4 = alloca ptr, align 8
  %5 = alloca ptr, align 8
  %6 = alloca i32, align 4
  %7 = alloca i32, align 4
  store ptr %0, ptr %4, align 8
  store ptr %1, ptr %5, align 8
  store i32 %2, ptr %6, align 4
  %8 = load ptr, ptr %4, align 8
  store i32 0, ptr %7, align 4
  %9 = load ptr, ptr %5, align 8
  %10 = call noundef zeroext i1 @_ZNK8Template13does_dispatchEv(ptr noundef nonnull align 8 dereferenceable(28) %9)
  br i1 %10, label %47, label %11

11:                                               ; preds = %3
  %12 = load ptr, ptr %5, align 8
  %13 = call noundef zeroext i1 @_ZNK8Template7is_wideEv(ptr noundef nonnull align 8 dereferenceable(28) %12)
  br i1 %13, label %14, label %18

14:                                               ; preds = %11
  %15 = load ptr, ptr %5, align 8
  %16 = call noundef i32 @_ZNK8Template8bytecodeEv(ptr noundef nonnull align 8 dereferenceable(28) %15)
  %17 = call noundef i32 @_ZN9Bytecodes15wide_length_forENS_4CodeE(i32 noundef %16)
  br label %22

18:                                               ; preds = %11
  %19 = load ptr, ptr %5, align 8
  %20 = call noundef i32 @_ZNK8Template8bytecodeEv(ptr noundef nonnull align 8 dereferenceable(28) %19)
  %21 = call noundef i32 @_ZN9Bytecodes10length_forENS_4CodeE(i32 noundef %20)
  br label %22

22:                                               ; preds = %18, %14
  %23 = phi i32 [ %17, %14 ], [ %21, %18 ]
  store i32 %23, ptr %7, align 4
  %24 = load i32, ptr %6, align 4
  %25 = icmp eq i32 %24, 11
  br i1 %25, label %26, label %29

26:                                               ; preds = %22
  %27 = load ptr, ptr %5, align 8
  %28 = call noundef i32 @_ZNK8Template7tos_outEv(ptr noundef nonnull align 8 dereferenceable(28) %27)
  store i32 %28, ptr %6, align 4
  br label %29

29:                                               ; preds = %26, %22
  %30 = load i8, ptr @ProfileInterpreter, align 1
  %31 = trunc i8 %30 to i1
  br i1 %31, label %32, label %41

32:                                               ; preds = %29
  br i1 false, label %33, label %41

33:                                               ; preds = %32
  %34 = load ptr, ptr %5, align 8
  %35 = call noundef i32 @_ZNK8Template8bytecodeEv(ptr noundef nonnull align 8 dereferenceable(28) %34)
  %36 = call noundef zeroext i1 @_ZN10MethodData20bytecode_has_profileEN9Bytecodes4CodeE(i32 noundef %35)
  br i1 %36, label %37, label %41

37:                                               ; preds = %33
  %38 = getelementptr inbounds %class.AbstractInterpreterGenerator, ptr %8, i32 0, i32 0
  %39 = load ptr, ptr %38, align 8
  %40 = call noundef ptr @_ZN12Disassembler4hookI25InterpreterMacroAssemblerEEPT_PKciS3_(ptr noundef @.str.52, i32 noundef 389, ptr noundef %39)
  call void @_ZN25InterpreterMacroAssembler26verify_method_data_pointerEv(ptr noundef nonnull align 8 dereferenceable(48) %40)
  br label %41

41:                                               ; preds = %37, %33, %32, %29
  %42 = getelementptr inbounds %class.AbstractInterpreterGenerator, ptr %8, i32 0, i32 0
  %43 = load ptr, ptr %42, align 8
  %44 = call noundef ptr @_ZN12Disassembler4hookI25InterpreterMacroAssemblerEEPT_PKciS3_(ptr noundef @.str.52, i32 noundef 391, ptr noundef %43)
  %45 = load i32, ptr %6, align 4
  %46 = load i32, ptr %7, align 4
  call void @_ZN25InterpreterMacroAssembler15dispatch_prologE8TosStatei(ptr noundef nonnull align 8 dereferenceable(48) %44, i32 noundef %45, i32 noundef %46)
  br label %47

47:                                               ; preds = %41, %3
  %48 = load ptr, ptr %5, align 8
  %49 = getelementptr inbounds %class.AbstractInterpreterGenerator, ptr %8, i32 0, i32 0
  %50 = load ptr, ptr %49, align 8
  call void @_ZN8Template8generateEP25InterpreterMacroAssembler(ptr noundef nonnull align 8 dereferenceable(28) %48, ptr noundef %50)
  %51 = load ptr, ptr %5, align 8
  %52 = call noundef zeroext i1 @_ZNK8Template13does_dispatchEv(ptr noundef nonnull align 8 dereferenceable(28) %51)
  br i1 %52, label %53, label %54

53:                                               ; preds = %47
  br label %60

54:                                               ; preds = %47
  %55 = getelementptr inbounds %class.AbstractInterpreterGenerator, ptr %8, i32 0, i32 0
  %56 = load ptr, ptr %55, align 8
  %57 = call noundef ptr @_ZN12Disassembler4hookI25InterpreterMacroAssemblerEEPT_PKciS3_(ptr noundef @.str.52, i32 noundef 403, ptr noundef %56)
  %58 = load i32, ptr %6, align 4
  %59 = load i32, ptr %7, align 4
  call void @_ZN25InterpreterMacroAssembler15dispatch_epilogE8TosStatei(ptr noundef nonnull align 8 dereferenceable(48) %57, i32 noundef %58, i32 noundef %59)
  br label %60

60:                                               ; preds = %54, %53
  ret void
}