; Function Attrs: mustprogress nounwind uwtable
define hidden void @_ZN28TemplateInterpreterGenerator21generate_and_dispatchEP8Template8TosState(ptr nocapture noundef nonnull readonly align 8 dereferenceable(24) %0, ptr noundef %1, i32 noundef %2) local_unnamed_addr #0 align 2 {
  %4 = load i32, ptr %1, align 8
  %5 = and i32 %4, 2
  %.not = icmp eq i32 %5, 0
  br i1 %.not, label %6, label %34

6:                                                ; preds = %3
  %7 = and i32 %4, 8
  %.not15 = icmp eq i32 %7, 0
  %8 = tail call noundef i32 @_ZNK8Template8bytecodeEv(ptr noundef nonnull align 8 dereferenceable(28) %1) #7
  %9 = icmp ult i32 %8, 239
  br i1 %.not15, label %17, label %10

10:                                               ; preds = %6
  br i1 %9, label %11, label %_ZN9Bytecodes15wide_length_forENS_4CodeE.exit

11:                                               ; preds = %10
  %12 = zext nneg i32 %8 to i64
  %13 = getelementptr inbounds [239 x i8], ptr @_ZN9Bytecodes8_lengthsE, i64 0, i64 %12
  %14 = load i8, ptr %13, align 1
  %15 = lshr i8 %14, 4
  %16 = zext nneg i8 %15 to i32
  br label %_ZN9Bytecodes15wide_length_forENS_4CodeE.exit

17:                                               ; preds = %6
  br i1 %9, label %18, label %_ZN9Bytecodes15wide_length_forENS_4CodeE.exit

18:                                               ; preds = %17
  %19 = zext nneg i32 %8 to i64
  %20 = getelementptr inbounds [239 x i8], ptr @_ZN9Bytecodes8_lengthsE, i64 0, i64 %19
  %21 = load i8, ptr %20, align 1
  %22 = and i8 %21, 15
  %23 = zext nneg i8 %22 to i32
  br label %_ZN9Bytecodes15wide_length_forENS_4CodeE.exit

_ZN9Bytecodes15wide_length_forENS_4CodeE.exit:    ; preds = %18, %17, %11, %10
  %24 = phi i32 [ %16, %11 ], [ -1, %10 ], [ %23, %18 ], [ -1, %17 ]
  %25 = icmp eq i32 %2, 11
  br i1 %25, label %26, label %29

26:                                               ; preds = %_ZN9Bytecodes15wide_length_forENS_4CodeE.exit
  %27 = getelementptr inbounds i8, ptr %1, i64 8
  %28 = load i32, ptr %27, align 8
  br label %29

29:                                               ; preds = %26, %_ZN9Bytecodes15wide_length_forENS_4CodeE.exit
  %.012 = phi i32 [ %28, %26 ], [ %2, %_ZN9Bytecodes15wide_length_forENS_4CodeE.exit ]
  %30 = load ptr, ptr %0, align 8
  %31 = load i8, ptr @PrintInterpreter, align 1
  %32 = trunc i8 %31 to i1
  br i1 %32, label %33, label %_ZN12Disassembler4hookI25InterpreterMacroAssemblerEEPT_PKciS3_.exit

33:                                               ; preds = %29
  tail call void @_ZN12Disassembler5_hookEPKciP14MacroAssembler(ptr noundef nonnull @.str.52, i32 noundef 391, ptr noundef %30) #7
  br label %_ZN12Disassembler4hookI25InterpreterMacroAssemblerEEPT_PKciS3_.exit

_ZN12Disassembler4hookI25InterpreterMacroAssemblerEEPT_PKciS3_.exit: ; preds = %29, %33
  tail call void @_ZN25InterpreterMacroAssembler15dispatch_prologE8TosStatei(ptr noundef nonnull align 8 dereferenceable(48) %30, i32 noundef %.012, i32 noundef %24) #7
  br label %34

34:                                               ; preds = %_ZN12Disassembler4hookI25InterpreterMacroAssemblerEEPT_PKciS3_.exit, %3
  %.1 = phi i32 [ %2, %3 ], [ %.012, %_ZN12Disassembler4hookI25InterpreterMacroAssemblerEEPT_PKciS3_.exit ]
  %.0 = phi i32 [ 0, %3 ], [ %24, %_ZN12Disassembler4hookI25InterpreterMacroAssemblerEEPT_PKciS3_.exit ]
  %35 = load ptr, ptr %0, align 8
  tail call void @_ZN8Template8generateEP25InterpreterMacroAssembler(ptr noundef nonnull align 8 dereferenceable(28) %1, ptr noundef %35) #7
  %36 = load i32, ptr %1, align 8
  %37 = and i32 %36, 2
  %.not16 = icmp eq i32 %37, 0
  br i1 %.not16, label %38, label %43

38:                                               ; preds = %34
  %39 = load ptr, ptr %0, align 8
  %40 = load i8, ptr @PrintInterpreter, align 1
  %41 = trunc i8 %40 to i1
  br i1 %41, label %42, label %_ZN12Disassembler4hookI25InterpreterMacroAssemblerEEPT_PKciS3_.exit14

42:                                               ; preds = %38
  tail call void @_ZN12Disassembler5_hookEPKciP14MacroAssembler(ptr noundef nonnull @.str.52, i32 noundef 403, ptr noundef %39) #7
  br label %_ZN12Disassembler4hookI25InterpreterMacroAssemblerEEPT_PKciS3_.exit14

_ZN12Disassembler4hookI25InterpreterMacroAssemblerEEPT_PKciS3_.exit14: ; preds = %38, %42
  tail call void @_ZN25InterpreterMacroAssembler15dispatch_epilogE8TosStatei(ptr noundef nonnull align 8 dereferenceable(48) %39, i32 noundef %.1, i32 noundef %.0) #7
  br label %43

43:                                               ; preds = %34, %_ZN12Disassembler4hookI25InterpreterMacroAssemblerEEPT_PKciS3_.exit14
  ret void
}